target datalayout = "e-m:e-p270:32:32-p271:32:32-p272:64:64-i64:64-i128:128-f80:128-n8:16:32:64-S128"
target triple = "x86_64-pc-linux-gnu"

%struct.__va_list_tag = type { i32, i32, ptr, ptr }

; Function Attrs: nounwind uwtable
define ptr @av_asprintf(ptr noundef %0, ...) #0 {
  %2 = alloca ptr, align 8
  %3 = alloca ptr, align 8
  %4 = alloca [1 x %struct.__va_list_tag], align 16
  %5 = alloca i32, align 4
  store ptr %0, ptr %2, align 8, !tbaa !4
  call void @llvm.lifetime.start.p0(i64 8, ptr %3) #11
  store ptr null, ptr %3, align 8, !tbaa !4
  call void @llvm.lifetime.start.p0(i64 24, ptr %4) #11
  call void @llvm.lifetime.start.p0(i64 4, ptr %5) #11
  %6 = getelementptr inbounds [1 x %struct.__va_list_tag], ptr %4, i64 0, i64 0
  call void @llvm.va_start.p0(ptr %6)
  %7 = load ptr, ptr %2, align 8, !tbaa !4
  %8 = getelementptr inbounds [1 x %struct.__va_list_tag], ptr %4, i64 0, i64 0
  %9 = call i32 @vsnprintf(ptr noundef null, i64 noundef 0, ptr noundef %7, ptr noundef %8) #11
  store i32 %9, ptr %5, align 4, !tbaa !16
  %10 = getelementptr inbounds [1 x %struct.__va_list_tag], ptr %4, i64 0, i64 0
  call void @llvm.va_end.p0(ptr %10)
  %11 = load i32, ptr %5, align 4, !tbaa !16
  %12 = icmp slt i32 %11, 0
  br i1 %12, label %13, label %14

13:                                               ; preds = %1
  br label %36

14:                                               ; preds = %1
  %15 = load i32, ptr %5, align 4, !tbaa !16
  %16 = add nsw i32 %15, 1
  %17 = sext i32 %16 to i64
  %18 = call noalias ptr @av_malloc(i64 noundef %17)
  store ptr %18, ptr %3, align 8, !tbaa !4
  %19 = load ptr, ptr %3, align 8, !tbaa !4
  %20 = icmp ne ptr %19, null
  br i1 %20, label %22, label %21

21:                                               ; preds = %14
  br label %36

22:                                               ; preds = %14
  %23 = getelementptr inbounds [1 x %struct.__va_list_tag], ptr %4, i64 0, i64 0
  call void @llvm.va_start.p0(ptr %23)
  %24 = load ptr, ptr %3, align 8, !tbaa !4
  %25 = load i32, ptr %5, align 4, !tbaa !16
  %26 = add nsw i32 %25, 1
  %27 = sext i32 %26 to i64
  %28 = load ptr, ptr %2, align 8, !tbaa !4
  %29 = getelementptr inbounds [1 x %struct.__va_list_tag], ptr %4, i64 0, i64 0
  %30 = call i32 @vsnprintf(ptr noundef %24, i64 noundef %27, ptr noundef %28, ptr noundef %29) #11
  store i32 %30, ptr %5, align 4, !tbaa !16
  %31 = getelementptr inbounds [1 x %struct.__va_list_tag], ptr %4, i64 0, i64 0
  call void @llvm.va_end.p0(ptr %31)
  %32 = load i32, ptr %5, align 4, !tbaa !16
  %33 = icmp slt i32 %32, 0
  br i1 %33, label %34, label %35

34:                                               ; preds = %22
  call void @av_freep(ptr noundef %3)
  br label %35

35:                                               ; preds = %34, %22
  br label %36

36:                                               ; preds = %35, %21, %13
  %37 = load ptr, ptr %3, align 8, !tbaa !4
  call void @llvm.lifetime.end.p0(i64 4, ptr %5) #11
  call void @llvm.lifetime.end.p0(i64 24, ptr %4) #11
  call void @llvm.lifetime.end.p0(i64 8, ptr %3) #11
  ret ptr %37
}