; Function Attrs: nounwind uwtable
define ptr @av_asprintf(ptr noundef readonly captures(none) %0, ...) local_unnamed_addr #9 {
  %2 = alloca ptr, align 8
  %3 = alloca [1 x %struct.__va_list_tag], align 16
  call void @llvm.lifetime.start.p0(i64 8, ptr nonnull %2) #19
  call void @llvm.lifetime.start.p0(i64 24, ptr nonnull %3) #19
  call void @llvm.va_start.p0(ptr nonnull %3)
  %4 = call i32 @vsnprintf(ptr noundef null, i64 noundef 0, ptr noundef %0, ptr noundef nonnull %3) #19
  call void @llvm.va_end.p0(ptr nonnull %3)
  %5 = icmp slt i32 %4, 0
  br i1 %5, label %14, label %6

6:                                                ; preds = %1
  %7 = add nuw nsw i32 %4, 1
  %8 = zext nneg i32 %7 to i64
  %9 = call noalias ptr @av_malloc(i64 noundef %8) #19
  store ptr %9, ptr %2, align 8, !tbaa !9
  %.not = icmp eq ptr %9, null
  br i1 %.not, label %14, label %10

10:                                               ; preds = %6
  call void @llvm.va_start.p0(ptr nonnull %3)
  %11 = call i32 @vsnprintf(ptr noundef nonnull %9, i64 noundef %8, ptr noundef %0, ptr noundef nonnull %3) #19
  call void @llvm.va_end.p0(ptr nonnull %3)
  %12 = icmp slt i32 %11, 0
  br i1 %12, label %13, label %14

13:                                               ; preds = %10
  call void @av_freep(ptr noundef nonnull %2) #19
  %.pre = load ptr, ptr %2, align 8, !tbaa !9
  br label %14

14:                                               ; preds = %10, %13, %6, %1
  %15 = phi ptr [ %9, %10 ], [ %.pre, %13 ], [ null, %6 ], [ null, %1 ]
  call void @llvm.lifetime.end.p0(i64 24, ptr nonnull %3) #19
  call void @llvm.lifetime.end.p0(i64 8, ptr nonnull %2) #19
  ret ptr %15
}